; Function Attrs: mustprogress uwtable
define void @_ZNK5osgeo4proj6common16IdentifiedObject8formatIDEPNS0_2io12WKTFormatterE(ptr noundef nonnull readonly align 8 captures(none) dereferenceable(40) %0, ptr noundef nonnull %1) local_unnamed_addr #0 align 2 {
  %3 = tail call noundef i32 @_ZNK5osgeo4proj2io12WKTFormatter7versionEv(ptr noundef nonnull align 8 dereferenceable(8) %1)
  %4 = getelementptr inbounds nuw i8, ptr %0, i64 32
  %5 = load ptr, ptr %4, align 8, !tbaa !138
  %6 = getelementptr inbounds nuw i8, ptr %5, i64 16
  %7 = load ptr, ptr %6, align 8, !tbaa !148
  %8 = getelementptr inbounds nuw i8, ptr %5, i64 24
  %9 = load ptr, ptr %8, align 8, !tbaa !148
  %.not10 = icmp eq ptr %7, %9
  br i1 %.not10, label %._crit_edge, label %.lr.ph

.lr.ph:                                           ; preds = %2
  %10 = icmp eq i32 %3, 1
  br i1 %10, label %.lr.ph.split.us, label %.lr.ph.split

.lr.ph.split.us:                                  ; preds = %.lr.ph, %.lr.ph.split.us
  %.sroa.07.011.us = phi ptr [ %15, %.lr.ph.split.us ], [ %7, %.lr.ph ]
  %11 = load ptr, ptr %.sroa.07.011.us, align 8, !tbaa !143
  %12 = load ptr, ptr %11, align 8, !tbaa !3
  %13 = getelementptr inbounds nuw i8, ptr %12, i64 16
  %14 = load ptr, ptr %13, align 8
  tail call void %14(ptr noundef nonnull align 8 dereferenceable(40) %11, ptr noundef nonnull %1)
  %15 = getelementptr inbounds nuw i8, ptr %.sroa.07.011.us, i64 16
  %.not.us = icmp eq ptr %15, %9
  br i1 %.not.us, label %._crit_edge, label %.lr.ph.split.us

.lr.ph.split:                                     ; preds = %.lr.ph
  %16 = load ptr, ptr %7, align 8, !tbaa !143
  %17 = load ptr, ptr %16, align 8, !tbaa !3
  %18 = getelementptr inbounds nuw i8, ptr %17, i64 16
  %19 = load ptr, ptr %18, align 8
  tail call void %19(ptr noundef nonnull align 8 dereferenceable(40) %16, ptr noundef nonnull %1)
  br label %._crit_edge

._crit_edge:                                      ; preds = %.lr.ph.split.us, %.lr.ph.split, %2
  ret void
}